; Function Attrs: mustprogress nofree norecurse nosync nounwind willreturn memory(readwrite, inaccessiblemem: none) uwtable
define hidden void @_ZN18WeakProcessorTimes22record_worker_time_secEjN13OopStorageSet6WeakIdEd(ptr nocapture noundef nonnull readonly align 8 dereferenceable(96) %0, i32 noundef %1, i32 noundef %2, double noundef %3) local_unnamed_addr #6 align 2 {
  %5 = add i32 %2, -5
  %6 = zext i32 %5 to i64
  %7 = getelementptr inbounds i8, ptr %0, i64 16
  %8 = getelementptr inbounds [10 x ptr], ptr %7, i64 0, i64 %6
  %9 = load ptr, ptr %8, align 8
  %10 = load ptr, ptr %9, align 8
  %11 = zext i32 %1 to i64
  %12 = getelementptr inbounds double, ptr %10, i64 %11
  store double %3, ptr %12, align 8
  ret void
}